target datalayout = "e-m:e-p270:32:32-p271:32:32-p272:64:64-i64:64-i128:128-f80:128-n8:16:32:64-S128"
target triple = "x86_64-pc-linux-gnu"

%struct._xmpp_attr_t = type { ptr, ptr, i32, i32, i8 }
%struct._xmpp_element_t = type { ptr, ptr, ptr, ptr, ptr, ptr, i32, i32, i8 }
%struct._GList = type { ptr, ptr, ptr }

; Function Attrs: null_pointer_is_valid sspstrong uwtable
define hidden ptr @xmpp_get_attr(ptr noundef %0, ptr noundef %1) #0 {
  %3 = alloca ptr, align 8
  %4 = alloca ptr, align 8
  %5 = alloca ptr, align 8
  store ptr %0, ptr %3, align 8
  store ptr %1, ptr %4, align 8
  call void @llvm.lifetime.start.p0(i64 8, ptr %5) #8
  %6 = load ptr, ptr %3, align 8
  %7 = getelementptr inbounds nuw %struct._xmpp_element_t, ptr %6, i32 0, i32 3
  %8 = load ptr, ptr %7, align 8
  %9 = load ptr, ptr %4, align 8
  %10 = call ptr @g_hash_table_lookup(ptr noundef %8, ptr noundef %9)
  store ptr %10, ptr %5, align 8
  %11 = load ptr, ptr %5, align 8
  %12 = icmp ne ptr %11, null
  br i1 %12, label %19, label %13

13:                                               ; preds = %2
  %14 = load ptr, ptr %3, align 8
  %15 = getelementptr inbounds nuw %struct._xmpp_element_t, ptr %14, i32 0, i32 3
  %16 = load ptr, ptr %15, align 8
  %17 = load ptr, ptr %4, align 8
  %18 = call ptr @g_hash_table_find(ptr noundef %16, ptr noundef @attr_find_pred, ptr noundef %17)
  store ptr %18, ptr %5, align 8
  br label %19

19:                                               ; preds = %13, %2
  %20 = load ptr, ptr %5, align 8
  %21 = icmp ne ptr %20, null
  br i1 %21, label %22, label %25

22:                                               ; preds = %19
  %23 = load ptr, ptr %5, align 8
  %24 = getelementptr inbounds nuw %struct._xmpp_attr_t, ptr %23, i32 0, i32 4
  store i8 1, ptr %24, align 8
  br label %25

25:                                               ; preds = %22, %19
  %26 = load ptr, ptr %5, align 8
  call void @llvm.lifetime.end.p0(i64 8, ptr %5) #8
  ret ptr %26
}

; Function Attrs: null_pointer_is_valid sspstrong uwtable
define hidden ptr @xmpp_steal_element_by_name_and_attr(ptr noundef %0, ptr noundef %1, ptr noundef %2, ptr noundef %3) #0 {
  %5 = alloca ptr, align 8
  %6 = alloca ptr, align 8
  %7 = alloca ptr, align 8
  %8 = alloca ptr, align 8
  %9 = alloca ptr, align 8
  %10 = alloca ptr, align 8
  %11 = alloca ptr, align 8
  %12 = alloca ptr, align 8
  %13 = alloca i32, align 4
  store ptr %0, ptr %5, align 8
  store ptr %1, ptr %6, align 8
  store ptr %2, ptr %7, align 8
  store ptr %3, ptr %8, align 8
  call void @llvm.lifetime.start.p0(i64 8, ptr %9) #8
  %14 = load ptr, ptr %5, align 8
  %15 = getelementptr inbounds nuw %struct._xmpp_element_t, ptr %14, i32 0, i32 4
  %16 = load ptr, ptr %15, align 8
  store ptr %16, ptr %9, align 8
  call void @llvm.lifetime.start.p0(i64 8, ptr %10) #8
  store ptr null, ptr %10, align 8
  br label %17

17:                                               ; preds = %67, %4
  %18 = load ptr, ptr %9, align 8
  %19 = icmp ne ptr %18, null
  br i1 %19, label %20, label %68

20:                                               ; preds = %17
  call void @llvm.lifetime.start.p0(i64 8, ptr %11) #8
  %21 = load ptr, ptr %9, align 8
  %22 = getelementptr inbounds nuw %struct._GList, ptr %21, i32 0, i32 0
  %23 = load ptr, ptr %22, align 8
  store ptr %23, ptr %11, align 8
  call void @llvm.lifetime.start.p0(i64 8, ptr %12) #8
  %24 = load ptr, ptr %11, align 8
  %25 = load ptr, ptr %7, align 8
  %26 = call ptr @xmpp_get_attr(ptr noundef %24, ptr noundef %25)
  store ptr %26, ptr %12, align 8
  %27 = load ptr, ptr %12, align 8
  %28 = icmp ne ptr %27, null
  br i1 %28, label %29, label %32

29:                                               ; preds = %20
  %30 = load ptr, ptr %12, align 8
  %31 = getelementptr inbounds nuw %struct._xmpp_attr_t, ptr %30, i32 0, i32 4
  store i8 0, ptr %31, align 8
  br label %32

32:                                               ; preds = %29, %20
  %33 = load ptr, ptr %11, align 8
  %34 = getelementptr inbounds nuw %struct._xmpp_element_t, ptr %33, i32 0, i32 8
  %35 = load i8, ptr %34, align 8, !range !6, !noundef !7
  %36 = trunc i8 %35 to i1
  br i1 %36, label %60, label %37

37:                                               ; preds = %32
  %38 = load ptr, ptr %12, align 8
  %39 = icmp ne ptr %38, null
  br i1 %39, label %40, label %60

40:                                               ; preds = %37
  %41 = load ptr, ptr %11, align 8
  %42 = getelementptr inbounds nuw %struct._xmpp_element_t, ptr %41, i32 0, i32 0
  %43 = load ptr, ptr %42, align 8
  %44 = load ptr, ptr %6, align 8
  %45 = call i32 @strcmp(ptr noundef %43, ptr noundef %44) #10
  %46 = icmp eq i32 %45, 0
  br i1 %46, label %47, label %60

47:                                               ; preds = %40
  %48 = load ptr, ptr %12, align 8
  %49 = getelementptr inbounds nuw %struct._xmpp_attr_t, ptr %48, i32 0, i32 0
  %50 = load ptr, ptr %49, align 8
  %51 = load ptr, ptr %8, align 8
  %52 = call i32 @strcmp(ptr noundef %50, ptr noundef %51) #10
  %53 = icmp eq i32 %52, 0
  br i1 %53, label %54, label %60

54:                                               ; preds = %47
  %55 = load ptr, ptr %9, align 8
  %56 = getelementptr inbounds nuw %struct._GList, ptr %55, i32 0, i32 0
  %57 = load ptr, ptr %56, align 8
  store ptr %57, ptr %10, align 8
  %58 = load ptr, ptr %10, align 8
  %59 = getelementptr inbounds nuw %struct._xmpp_element_t, ptr %58, i32 0, i32 8
  store i8 1, ptr %59, align 8
  store i32 3, ptr %13, align 4
  br label %65

60:                                               ; preds = %47, %40, %37, %32
  %61 = load ptr, ptr %9, align 8
  %62 = getelementptr inbounds nuw %struct._GList, ptr %61, i32 0, i32 1
  %63 = load ptr, ptr %62, align 8
  store ptr %63, ptr %9, align 8
  br label %64

64:                                               ; preds = %60
  store i32 0, ptr %13, align 4
  br label %65

65:                                               ; preds = %64, %54
  call void @llvm.lifetime.end.p0(i64 8, ptr %12) #8
  call void @llvm.lifetime.end.p0(i64 8, ptr %11) #8
  %66 = load i32, ptr %13, align 4
  switch i32 %66, label %70 [
    i32 0, label %67
    i32 3, label %68
  ]

67:                                               ; preds = %65
  br label %17, !llvm.loop !14

68:                                               ; preds = %65, %17
  %69 = load ptr, ptr %10, align 8
  store i32 1, ptr %13, align 4
  call void @llvm.lifetime.end.p0(i64 8, ptr %10) #8
  call void @llvm.lifetime.end.p0(i64 8, ptr %9) #8
  ret ptr %69

70:                                               ; preds = %65
  unreachable
}