; Function Attrs: null_pointer_is_valid sspstrong uwtable
define hidden ptr @xmpp_steal_element_by_name_and_attr(ptr noundef readonly captures(none) %0, ptr noundef readonly captures(none) %1, ptr noundef %2, ptr noundef readonly captures(none) %3) local_unnamed_addr #0 {
  %5 = getelementptr inbounds nuw i8, ptr %0, i64 32
  %.01835 = load ptr, ptr %5, align 8
  %.not2336 = icmp eq ptr %.01835, null
  br i1 %.not2336, label %.loopexit, label %.lr.ph

.lr.ph:                                           ; preds = %4, %.thread
  %.01837 = phi ptr [ %.018, %.thread ], [ %.01835, %4 ]
  %6 = load ptr, ptr %.01837, align 8
  %7 = getelementptr inbounds nuw i8, ptr %6, i64 24
  %8 = load ptr, ptr %7, align 8
  %9 = tail call ptr @g_hash_table_lookup(ptr noundef %8, ptr noundef %2)
  %.not.i = icmp eq ptr %9, null
  br i1 %.not.i, label %10, label %13

10:                                               ; preds = %.lr.ph
  %11 = load ptr, ptr %7, align 8
  %12 = tail call ptr @g_hash_table_find(ptr noundef %11, ptr noundef nonnull @attr_find_pred, ptr noundef %2)
  %.not9.i = icmp eq ptr %12, null
  br i1 %.not9.i, label %.thread, label %13

13:                                               ; preds = %.lr.ph, %10
  %.012.i = phi ptr [ %12, %10 ], [ %9, %.lr.ph ]
  %14 = getelementptr inbounds nuw i8, ptr %.012.i, i64 24
  store i8 0, ptr %14, align 8
  %15 = getelementptr inbounds nuw i8, ptr %6, i64 56
  %16 = load i8, ptr %15, align 8, !range !6, !noundef !7
  %17 = trunc nuw i8 %16 to i1
  br i1 %17, label %.thread, label %18

18:                                               ; preds = %13
  %19 = load ptr, ptr %6, align 8
  %20 = tail call i32 @strcmp(ptr noundef %19, ptr noundef %1) #11
  %21 = icmp eq i32 %20, 0
  br i1 %21, label %22, label %.thread

22:                                               ; preds = %18
  %23 = load ptr, ptr %.012.i, align 8
  %24 = tail call i32 @strcmp(ptr noundef %23, ptr noundef %3) #11
  %25 = icmp eq i32 %24, 0
  br i1 %25, label %.thread29, label %.thread

.thread29:                                        ; preds = %22
  %26 = load ptr, ptr %.01837, align 8
  %27 = getelementptr inbounds nuw i8, ptr %26, i64 56
  store i8 1, ptr %27, align 8
  br label %.loopexit

.thread:                                          ; preds = %10, %13, %18, %22
  %28 = getelementptr inbounds nuw i8, ptr %.01837, i64 8
  %.018 = load ptr, ptr %28, align 8
  %.not23 = icmp eq ptr %.018, null
  br i1 %.not23, label %.loopexit, label %.lr.ph

.loopexit:                                        ; preds = %.thread, %4, %.thread29
  %.120 = phi ptr [ %26, %.thread29 ], [ null, %4 ], [ null, %.thread ]
  ret ptr %.120
}